Certificate Request:
    Data:
        Version: 0 (0x0)
        Subject: OU=Domain Control Validated, CN=*.odebrechtambiental.com
        Subject Public Key Info:
            Public Key Algorithm: rsaEncryption
                Public-Key: (2048 bit)
                Modulus:
                    00:c7:f7:c7:44:7a:19:19:1f:1d:0b:c2:9e:ff:34:
                    42:d4:b1:eb:6f:5d:6c:78:cb:f3:ad:3d:f3:a7:73:
                    8d:6a:9b:b5:9b:8d:71:23:62:64:8b:e7:f0:b6:eb:
                    88:ef:07:83:70:86:3a:82:e5:48:f2:03:83:17:13:
                    e9:7b:d0:d3:4b:7b:e3:45:6c:83:22:bd:3c:1b:42:
                    66:10:31:c4:84:da:fb:f7:da:4c:bb:98:2a:f9:d4:
                    f4:e7:2f:19:ec:4e:2c:cd:01:6a:cf:bc:d8:6b:8a:
                    d7:6c:2c:fb:c2:03:83:ad:7b:00:4c:5b:8f:ba:35:
                    99:b3:23:49:fd:18:f2:bf:34:8a:99:ef:11:2f:3d:
                    bd:eb:69:b5:a1:ae:b2:c5:46:18:dc:80:e5:f8:46:
                    a4:70:09:69:8f:b9:cb:66:b8:75:10:10:53:aa:03:
                    3b:24:25:19:37:19:8d:d3:a1:4b:95:98:ac:3f:5d:
                    b8:73:3c:ad:49:e1:f1:14:cf:cf:a2:cc:05:92:32:
                    71:83:2d:3b:d9:2f:78:65:90:01:d6:7e:b9:db:cc:
                    3e:b5:df:83:52:56:c3:32:5e:09:1d:38:53:b2:12:
                    33:8b:c4:4a:38:24:83:0d:71:51:6b:df:c0:9a:18:
                    f6:b0:b0:e9:b3:b2:9b:fa:7e:f2:53:3e:44:f7:14:
                    96:eb
                Exponent: 65537 (0x10001)
        Attributes:
            a0:00
    Signature Algorithm: sha1WithRSAEncryption
         0e:8a:7f:cc:eb:7a:ed:81:4f:84:8f:08:ea:3d:21:bc:aa:92:
         a1:44:4f:f8:39:77:d0:f5:27:5f:25:d2:1d:88:d9:c8:c2:df:
         f3:f2:41:44:9f:13:1c:8e:9a:58:fb:cd:25:6a:87:41:10:0b:
         97:9f:34:70:76:2b:38:b2:e3:aa:99:7b:13:f8:9e:9c:a4:d5:
         29:1f:03:05:57:00:9a:34:6c:b2:82:b4:c8:cb:7c:08:b2:a5:
         47:98:0c:15:19:4d:e6:40:f8:79:6e:13:52:06:b3:99:de:dc:
         a0:cb:90:2a:76:aa:af:9b:ab:2b:1f:89:b8:e1:d0:a1:fa:2d:
         45:48:cd:81:58:81:b5:e3:9a:de:e7:50:03:14:47:cd:1c:08:
         bc:ef:4c:d5:c8:ca:79:b9:41:2b:c5:b8:a0:ac:9b:26:86:53:
         12:3f:01:18:e0:d8:c2:2c:b9:58:2e:a0:de:11:aa:a3:00:4a:
         8b:27:24:50:69:41:87:5d:5e:18:11:ca:8f:af:a9:b2:25:80:
         8c:58:29:b1:b0:ba:65:04:b0:79:b6:c1:1d:3a:d5:a8:7e:b5:
         ff:3a:3c:b2:10:b4:f6:a1:16:8f:fe:10:13:92:91:05:f6:10:
         db:b1:36:d8:2e:c8:e7:d3:de:29:f8:72:f2:6c:ef:ca:e6:ac:
         e1:0f:fd:9a
-----BEGIN CERTIFICATE REQUEST-----
MIICizCCAXMCAQAwRjEhMB8GA1UECxMYRG9tYWluIENvbnRyb2wgVmFsaWRhdGVk
MSEwHwYDVQQDDBgqLm9kZWJyZWNodGFtYmllbnRhbC5jb20wggEiMA0GCSqGSIb3
DQEBAQUAA4IBDwAwggEKAoIBAQDH98dEehkZHx0Lwp7/NELUsetvXWx4y/OtPfOn
c41qm7WbjXEjYmSL5/C264jvB4NwhjqC5UjyA4MXE+l70NNLe+NFbIMivTwbQmYQ
McSE2vv32ky7mCr51PTnLxnsTizNAWrPvNhritdsLPvCA4OtewBMW4+6NZmzI0n9
GPK/NIqZ7xEvPb3rabWhrrLFRhjcgOX4RqRwCWmPuctmuHUQEFOqAzskJRk3GY3T
oUuVmKw/XbhzPK1J4fEUz8+izAWSMnGDLTvZL3hlkAHWfrnbzD6134NSVsMyXgkd
OFOyEjOLxEo4JIMNcVFr38CaGPawsOmzspv6fvJTPkT3FJbrAgMBAAGgADANBgkq
hkiG9w0BAQUFAAOCAQEADop/zOt67YFPhI8I6j0hvKqSoURP+Dl30PUnXyXSHYjZ
yMLf8/JBRJ8THI6aWPvNJWqHQRALl580cHYrOLLjqpl7E/ienKTVKR8DBVcAmjRs
soK0yMt8CLKlR5gMFRlN5kD4eW4TUgazmd7coMuQKnaqr5urKx+JuOHQofotRUjN
gViBteOa3udQAxRHzRwIvO9M1cjKeblBK8W4oKybJoZTEj8BGODYwiy5WC6g3hGq
owBKiyckUGlBh11eGBHKj6+psiWAjFgpsbC6ZQSwebbBHTrVqH61/zo8shC09qEW
j/4QE5KRBfYQ27E22C7I59PeKfhy8mzvyuas4Q/9mg==
-----END CERTIFICATE REQUEST-----
